;--------------------------------------------------------
; File Created by SDCC : free open source ANSI-C Compiler
; Version 3.8.0 #10562 (Linux)
;--------------------------------------------------------
	.module list
	.optsdcc -mmcs51 --model-large
	
;--------------------------------------------------------
; Public variables in this module
;--------------------------------------------------------
	.globl _P3_7
	.globl _P3_6
	.globl _P3_5
	.globl _P3_4
	.globl _P3_3
	.globl _P3_2
	.globl _P3_1
	.globl _P3_0
	.globl _P2_7
	.globl _P2_6
	.globl _P2_5
	.globl _P2_4
	.globl _P2_3
	.globl _P2_2
	.globl _P2_1
	.globl _P2_0
	.globl _P1_7
	.globl _P1_6
	.globl _P1_5
	.globl _P1_4
	.globl _P1_3
	.globl _P1_2
	.globl _P1_1
	.globl _P1_0
	.globl _P0_7
	.globl _P0_6
	.globl _P0_5
	.globl _P0_4
	.globl _P0_3
	.globl _P0_2
	.globl _P0_1
	.globl _P0_0
	.globl _EIRQ7
	.globl _EIRQ6
	.globl _EIRQ5
	.globl _EIRQ4
	.globl _EIRQ3
	.globl _EIRQ2
	.globl _EIRQ1
	.globl _EIRQ0
	.globl _T0CEN
	.globl _T0ARL
	.globl _T0IRQ
	.globl _RXRDY
	.globl _TXRDY
	.globl _RXIRQ
	.globl _TXIRQ
	.globl _EEX
	.globl _ET0
	.globl _ES
	.globl _EA
	.globl _P3
	.globl _P2
	.globl _P1
	.globl _P0
	.globl _EXTINT
	.globl _T0CH
	.globl _T0CL
	.globl _T0H
	.globl _T0L
	.globl _TCON
	.globl _SBPH
	.globl _SBPL
	.globl _SBUF
	.globl _SCON
	.globl _IE
	.globl _DPL
	.globl _DPH
	.globl _SP
	.globl _PSW
	.globl _B
	.globl _ACC
	.globl _vListInitialise
	.globl _vListInitialiseItem
	.globl _vListInsertEnd
	.globl _vListInsert
	.globl _uxListRemove
;--------------------------------------------------------
; special function registers
;--------------------------------------------------------
	.area RSEG    (ABS,DATA)
	.org 0x0000
G$ACC$0_0$0 == 0x00e0
_ACC	=	0x00e0
G$B$0_0$0 == 0x00f0
_B	=	0x00f0
G$PSW$0_0$0 == 0x00d0
_PSW	=	0x00d0
G$SP$0_0$0 == 0x0081
_SP	=	0x0081
G$DPH$0_0$0 == 0x0083
_DPH	=	0x0083
G$DPL$0_0$0 == 0x0082
_DPL	=	0x0082
G$IE$0_0$0 == 0x00a8
_IE	=	0x00a8
G$SCON$0_0$0 == 0x0098
_SCON	=	0x0098
G$SBUF$0_0$0 == 0x0099
_SBUF	=	0x0099
G$SBPL$0_0$0 == 0x009a
_SBPL	=	0x009a
G$SBPH$0_0$0 == 0x009b
_SBPH	=	0x009b
G$TCON$0_0$0 == 0x0088
_TCON	=	0x0088
G$T0L$0_0$0 == 0x008c
_T0L	=	0x008c
G$T0H$0_0$0 == 0x008d
_T0H	=	0x008d
G$T0CL$0_0$0 == 0x008e
_T0CL	=	0x008e
G$T0CH$0_0$0 == 0x008f
_T0CH	=	0x008f
G$EXTINT$0_0$0 == 0x00c0
_EXTINT	=	0x00c0
G$P0$0_0$0 == 0x0080
_P0	=	0x0080
G$P1$0_0$0 == 0x0090
_P1	=	0x0090
G$P2$0_0$0 == 0x00a0
_P2	=	0x00a0
G$P3$0_0$0 == 0x00b0
_P3	=	0x00b0
;--------------------------------------------------------
; special function bits
;--------------------------------------------------------
	.area RSEG    (ABS,DATA)
	.org 0x0000
G$EA$0_0$0 == 0x00af
_EA	=	0x00af
G$ES$0_0$0 == 0x00ac
_ES	=	0x00ac
G$ET0$0_0$0 == 0x00a9
_ET0	=	0x00a9
G$EEX$0_0$0 == 0x00a8
_EEX	=	0x00a8
G$TXIRQ$0_0$0 == 0x009c
_TXIRQ	=	0x009c
G$RXIRQ$0_0$0 == 0x009d
_RXIRQ	=	0x009d
G$TXRDY$0_0$0 == 0x009c
_TXRDY	=	0x009c
G$RXRDY$0_0$0 == 0x009d
_RXRDY	=	0x009d
G$T0IRQ$0_0$0 == 0x0088
_T0IRQ	=	0x0088
G$T0ARL$0_0$0 == 0x008c
_T0ARL	=	0x008c
G$T0CEN$0_0$0 == 0x008d
_T0CEN	=	0x008d
G$EIRQ0$0_0$0 == 0x00c0
_EIRQ0	=	0x00c0
G$EIRQ1$0_0$0 == 0x00c1
_EIRQ1	=	0x00c1
G$EIRQ2$0_0$0 == 0x00c2
_EIRQ2	=	0x00c2
G$EIRQ3$0_0$0 == 0x00c3
_EIRQ3	=	0x00c3
G$EIRQ4$0_0$0 == 0x00c4
_EIRQ4	=	0x00c4
G$EIRQ5$0_0$0 == 0x00c5
_EIRQ5	=	0x00c5
G$EIRQ6$0_0$0 == 0x00c6
_EIRQ6	=	0x00c6
G$EIRQ7$0_0$0 == 0x00c7
_EIRQ7	=	0x00c7
G$P0_0$0_0$0 == 0x0080
_P0_0	=	0x0080
G$P0_1$0_0$0 == 0x0081
_P0_1	=	0x0081
G$P0_2$0_0$0 == 0x0082
_P0_2	=	0x0082
G$P0_3$0_0$0 == 0x0083
_P0_3	=	0x0083
G$P0_4$0_0$0 == 0x0084
_P0_4	=	0x0084
G$P0_5$0_0$0 == 0x0085
_P0_5	=	0x0085
G$P0_6$0_0$0 == 0x0086
_P0_6	=	0x0086
G$P0_7$0_0$0 == 0x0087
_P0_7	=	0x0087
G$P1_0$0_0$0 == 0x0090
_P1_0	=	0x0090
G$P1_1$0_0$0 == 0x0091
_P1_1	=	0x0091
G$P1_2$0_0$0 == 0x0092
_P1_2	=	0x0092
G$P1_3$0_0$0 == 0x0093
_P1_3	=	0x0093
G$P1_4$0_0$0 == 0x0094
_P1_4	=	0x0094
G$P1_5$0_0$0 == 0x0095
_P1_5	=	0x0095
G$P1_6$0_0$0 == 0x0096
_P1_6	=	0x0096
G$P1_7$0_0$0 == 0x0097
_P1_7	=	0x0097
G$P2_0$0_0$0 == 0x00a0
_P2_0	=	0x00a0
G$P2_1$0_0$0 == 0x00a1
_P2_1	=	0x00a1
G$P2_2$0_0$0 == 0x00a2
_P2_2	=	0x00a2
G$P2_3$0_0$0 == 0x00a3
_P2_3	=	0x00a3
G$P2_4$0_0$0 == 0x00a4
_P2_4	=	0x00a4
G$P2_5$0_0$0 == 0x00a5
_P2_5	=	0x00a5
G$P2_6$0_0$0 == 0x00a6
_P2_6	=	0x00a6
G$P2_7$0_0$0 == 0x00a7
_P2_7	=	0x00a7
G$P3_0$0_0$0 == 0x00b0
_P3_0	=	0x00b0
G$P3_1$0_0$0 == 0x00b1
_P3_1	=	0x00b1
G$P3_2$0_0$0 == 0x00b2
_P3_2	=	0x00b2
G$P3_3$0_0$0 == 0x00b3
_P3_3	=	0x00b3
G$P3_4$0_0$0 == 0x00b4
_P3_4	=	0x00b4
G$P3_5$0_0$0 == 0x00b5
_P3_5	=	0x00b5
G$P3_6$0_0$0 == 0x00b6
_P3_6	=	0x00b6
G$P3_7$0_0$0 == 0x00b7
_P3_7	=	0x00b7
;--------------------------------------------------------
; overlayable register banks
;--------------------------------------------------------
	.area REG_BANK_0	(REL,OVR,DATA)
	.ds 8
;--------------------------------------------------------
; internal ram data
;--------------------------------------------------------
	.area DSEG    (DATA)
;--------------------------------------------------------
; overlayable items in internal ram 
;--------------------------------------------------------
;--------------------------------------------------------
; indirectly addressable internal ram data
;--------------------------------------------------------
	.area ISEG    (DATA)
;--------------------------------------------------------
; absolute internal ram data
;--------------------------------------------------------
	.area IABS    (ABS,DATA)
	.area IABS    (ABS,DATA)
;--------------------------------------------------------
; bit data
;--------------------------------------------------------
	.area BSEG    (BIT)
;--------------------------------------------------------
; paged external ram data
;--------------------------------------------------------
	.area PSEG    (PAG,XDATA)
;--------------------------------------------------------
; external ram data
;--------------------------------------------------------
	.area XSEG    (XDATA)
;--------------------------------------------------------
; absolute external ram data
;--------------------------------------------------------
	.area XABS    (ABS,XDATA)
;--------------------------------------------------------
; external initialized ram data
;--------------------------------------------------------
	.area HOME    (CODE)
	.area GSINIT0 (CODE)
	.area GSINIT1 (CODE)
	.area GSINIT2 (CODE)
	.area GSINIT3 (CODE)
	.area GSINIT4 (CODE)
	.area GSINIT5 (CODE)
	.area GSINIT  (CODE)
	.area GSFINAL (CODE)
	.area CSEG    (CODE)
;--------------------------------------------------------
; global & static initialisations
;--------------------------------------------------------
	.area HOME    (CODE)
	.area GSINIT  (CODE)
	.area GSFINAL (CODE)
	.area GSINIT  (CODE)
;--------------------------------------------------------
; Home
;--------------------------------------------------------
	.area HOME    (CODE)
	.area HOME    (CODE)
;--------------------------------------------------------
; code
;--------------------------------------------------------
	.area CSEG    (CODE)
;------------------------------------------------------------
;Allocation info for local variables in function 'vListInitialise'
;------------------------------------------------------------
;pxList                    Allocated to stack - _bp +1
;sloc0                     Allocated to stack - _bp +4
;sloc1                     Allocated to stack - _bp +7
;------------------------------------------------------------
	G$vListInitialise$0$0 ==.
	C$list.c$37$0_0$47 ==.
;	src/FreeRTOS/list.c:37: void vListInitialise( List_t * const pxList )
;	-----------------------------------------
;	 function vListInitialise
;	-----------------------------------------
_vListInitialise:
	ar7 = 0x07
	ar6 = 0x06
	ar5 = 0x05
	ar4 = 0x04
	ar3 = 0x03
	ar2 = 0x02
	ar1 = 0x01
	ar0 = 0x00
	push	_bp
	mov	_bp,sp
	push	dpl
	push	dph
	push	b
	inc	sp
	inc	sp
	inc	sp
	C$list.c$42$1_0$47 ==.
;	src/FreeRTOS/list.c:42: pxList->pxIndex = ( ListItem_t * ) &( pxList->xListEnd );			/*lint !e826 !e740 !e9087 The mini list structure is used as the list end to save RAM.  This is checked and valid. */
	mov	r0,_bp
	inc	r0
	mov	a,#0x01
	add	a,@r0
	mov	r7,a
	clr	a
	inc	r0
	addc	a,@r0
	mov	r3,a
	inc	r0
	mov	ar2,@r0
	mov	r0,_bp
	inc	r0
	mov	a,_bp
	add	a,#0x04
	mov	r1,a
	mov	a,#0x04
	add	a,@r0
	mov	@r1,a
	clr	a
	inc	r0
	addc	a,@r0
	inc	r1
	mov	@r1,a
	inc	r0
	inc	r1
	mov	a,@r0
	mov	@r1,a
	mov	a,_bp
	add	a,#0x04
	mov	r0,a
	mov	ar4,@r0
	inc	r0
	mov	ar5,@r0
	inc	r0
	mov	ar6,@r0
	mov	dpl,r7
	mov	dph,r3
	mov	b,r2
	mov	a,r4
	lcall	__gptrput
	inc	dptr
	mov	a,r5
	lcall	__gptrput
	inc	dptr
	mov	a,r6
	lcall	__gptrput
	C$list.c$46$1_0$47 ==.
;	src/FreeRTOS/list.c:46: pxList->xListEnd.xItemValue = portMAX_DELAY;
	mov	a,_bp
	add	a,#0x04
	mov	r0,a
	mov	dpl,@r0
	inc	r0
	mov	dph,@r0
	inc	r0
	mov	b,@r0
	mov	a,#0xff
	lcall	__gptrput
	inc	dptr
	lcall	__gptrput
	C$list.c$50$1_0$47 ==.
;	src/FreeRTOS/list.c:50: pxList->xListEnd.pxNext = ( ListItem_t * ) &( pxList->xListEnd );	/*lint !e826 !e740 !e9087 The mini list structure is used as the list end to save RAM.  This is checked and valid. */
	mov	a,_bp
	add	a,#0x04
	mov	r0,a
	mov	a,#0x02
	add	a,@r0
	mov	r7,a
	clr	a
	inc	r0
	addc	a,@r0
	mov	r5,a
	inc	r0
	mov	ar4,@r0
	mov	a,_bp
	add	a,#0x04
	mov	r0,a
	mov	ar2,@r0
	inc	r0
	mov	ar3,@r0
	inc	r0
	mov	ar6,@r0
	mov	dpl,r7
	mov	dph,r5
	mov	b,r4
	mov	a,r2
	lcall	__gptrput
	inc	dptr
	mov	a,r3
	lcall	__gptrput
	inc	dptr
	mov	a,r6
	lcall	__gptrput
	C$list.c$51$1_0$47 ==.
;	src/FreeRTOS/list.c:51: pxList->xListEnd.pxPrevious = ( ListItem_t * ) &( pxList->xListEnd );/*lint !e826 !e740 !e9087 The mini list structure is used as the list end to save RAM.  This is checked and valid. */
	mov	a,_bp
	add	a,#0x04
	mov	r0,a
	mov	a,#0x05
	add	a,@r0
	mov	r7,a
	clr	a
	inc	r0
	addc	a,@r0
	mov	r5,a
	inc	r0
	mov	ar4,@r0
	mov	a,_bp
	add	a,#0x04
	mov	r0,a
	mov	ar2,@r0
	inc	r0
	mov	ar3,@r0
	inc	r0
	mov	ar6,@r0
	mov	dpl,r7
	mov	dph,r5
	mov	b,r4
	mov	a,r2
	lcall	__gptrput
	inc	dptr
	mov	a,r3
	lcall	__gptrput
	inc	dptr
	mov	a,r6
	lcall	__gptrput
	C$list.c$53$1_0$47 ==.
;	src/FreeRTOS/list.c:53: pxList->uxNumberOfItems = ( UBaseType_t ) 0U;
	mov	r0,_bp
	inc	r0
	mov	dpl,@r0
	inc	r0
	mov	dph,@r0
	inc	r0
	mov	b,@r0
	clr	a
	lcall	__gptrput
	C$list.c$59$1_0$47 ==.
;	src/FreeRTOS/list.c:59: }
	mov	sp,_bp
	pop	_bp
	C$list.c$59$1_0$47 ==.
	XG$vListInitialise$0$0 ==.
	ret
;------------------------------------------------------------
;Allocation info for local variables in function 'vListInitialiseItem'
;------------------------------------------------------------
;pxItem                    Allocated to registers r5 r6 r7 
;------------------------------------------------------------
	G$vListInitialiseItem$0$0 ==.
	C$list.c$62$1_0$49 ==.
;	src/FreeRTOS/list.c:62: void vListInitialiseItem( ListItem_t * const pxItem )
;	-----------------------------------------
;	 function vListInitialiseItem
;	-----------------------------------------
_vListInitialiseItem:
	mov	r5,dpl
	mov	r6,dph
	mov	r7,b
	C$list.c$65$1_0$49 ==.
;	src/FreeRTOS/list.c:65: pxItem->pxContainer = NULL;
	mov	a,#0x0b
	add	a,r5
	mov	r5,a
	clr	a
	addc	a,r6
	mov	r6,a
	mov	dpl,r5
	mov	dph,r6
	mov	b,r7
	clr	a
	lcall	__gptrput
	inc	dptr
	lcall	__gptrput
	inc	dptr
	lcall	__gptrput
	C$list.c$71$1_0$49 ==.
;	src/FreeRTOS/list.c:71: }
	C$list.c$71$1_0$49 ==.
	XG$vListInitialiseItem$0$0 ==.
	ret
;------------------------------------------------------------
;Allocation info for local variables in function 'vListInsertEnd'
;------------------------------------------------------------
;pxNewListItem             Allocated to stack - _bp -5
;pxList                    Allocated to stack - _bp +1
;pxIndex                   Allocated to stack - _bp +10
;sloc0                     Allocated to stack - _bp +4
;sloc1                     Allocated to stack - _bp +7
;------------------------------------------------------------
	G$vListInsertEnd$0$0 ==.
	C$list.c$74$1_0$51 ==.
;	src/FreeRTOS/list.c:74: void vListInsertEnd( List_t * const pxList, ListItem_t * const pxNewListItem )
;	-----------------------------------------
;	 function vListInsertEnd
;	-----------------------------------------
_vListInsertEnd:
	push	_bp
	mov	_bp,sp
	push	dpl
	push	dph
	push	b
	mov	a,sp
	add	a,#0x09
	mov	sp,a
	C$list.c$76$1_0$51 ==.
;	src/FreeRTOS/list.c:76: ListItem_t * const pxIndex = pxList->pxIndex;
	mov	r0,_bp
	inc	r0
	mov	a,#0x01
	add	a,@r0
	mov	r2,a
	clr	a
	inc	r0
	addc	a,@r0
	mov	r3,a
	inc	r0
	mov	ar4,@r0
	mov	dpl,r2
	mov	dph,r3
	mov	b,r4
	mov	a,_bp
	add	a,#0x0a
	mov	r0,a
	lcall	__gptrget
	mov	@r0,a
	inc	dptr
	lcall	__gptrget
	inc	r0
	mov	@r0,a
	inc	dptr
	lcall	__gptrget
	inc	r0
	mov	@r0,a
	C$list.c$87$1_0$51 ==.
;	src/FreeRTOS/list.c:87: pxNewListItem->pxNext = pxIndex;
	mov	a,_bp
	add	a,#0xfb
	mov	r0,a
	mov	ar2,@r0
	inc	r0
	mov	ar3,@r0
	inc	r0
	mov	ar4,@r0
	mov	a,#0x02
	add	a,r2
	mov	r5,a
	clr	a
	addc	a,r3
	mov	r6,a
	mov	ar7,r4
	mov	dpl,r5
	mov	dph,r6
	mov	b,r7
	mov	a,_bp
	add	a,#0x0a
	mov	r0,a
	mov	a,@r0
	lcall	__gptrput
	inc	dptr
	inc	r0
	mov	a,@r0
	lcall	__gptrput
	inc	dptr
	inc	r0
	mov	a,@r0
	lcall	__gptrput
	C$list.c$88$1_0$51 ==.
;	src/FreeRTOS/list.c:88: pxNewListItem->pxPrevious = pxIndex->pxPrevious;
	mov	a,_bp
	add	a,#0x04
	mov	r0,a
	mov	a,#0x05
	add	a,r2
	mov	@r0,a
	clr	a
	addc	a,r3
	inc	r0
	mov	@r0,a
	inc	r0
	mov	@r0,ar4
	mov	a,_bp
	add	a,#0x0a
	mov	r0,a
	mov	a,_bp
	add	a,#0x07
	mov	r1,a
	mov	a,#0x05
	add	a,@r0
	mov	@r1,a
	clr	a
	inc	r0
	addc	a,@r0
	inc	r1
	mov	@r1,a
	inc	r0
	inc	r1
	mov	a,@r0
	mov	@r1,a
	mov	a,_bp
	add	a,#0x07
	mov	r0,a
	mov	dpl,@r0
	inc	r0
	mov	dph,@r0
	inc	r0
	mov	b,@r0
	lcall	__gptrget
	mov	r5,a
	inc	dptr
	lcall	__gptrget
	mov	r6,a
	inc	dptr
	lcall	__gptrget
	mov	r7,a
	mov	a,_bp
	add	a,#0x04
	mov	r0,a
	mov	dpl,@r0
	inc	r0
	mov	dph,@r0
	inc	r0
	mov	b,@r0
	mov	a,r5
	lcall	__gptrput
	inc	dptr
	mov	a,r6
	lcall	__gptrput
	inc	dptr
	mov	a,r7
	lcall	__gptrput
	C$list.c$93$1_0$51 ==.
;	src/FreeRTOS/list.c:93: pxIndex->pxPrevious->pxNext = pxNewListItem;
	mov	a,_bp
	add	a,#0x07
	mov	r0,a
	mov	dpl,@r0
	inc	r0
	mov	dph,@r0
	inc	r0
	mov	b,@r0
	lcall	__gptrget
	mov	r5,a
	inc	dptr
	lcall	__gptrget
	mov	r6,a
	inc	dptr
	lcall	__gptrget
	mov	r7,a
	mov	a,#0x02
	add	a,r5
	mov	r5,a
	clr	a
	addc	a,r6
	mov	r6,a
	mov	dpl,r5
	mov	dph,r6
	mov	b,r7
	mov	a,r2
	lcall	__gptrput
	inc	dptr
	mov	a,r3
	lcall	__gptrput
	inc	dptr
	mov	a,r4
	lcall	__gptrput
	C$list.c$94$1_0$51 ==.
;	src/FreeRTOS/list.c:94: pxIndex->pxPrevious = pxNewListItem;
	mov	a,_bp
	add	a,#0x07
	mov	r0,a
	mov	dpl,@r0
	inc	r0
	mov	dph,@r0
	inc	r0
	mov	b,@r0
	mov	a,r2
	lcall	__gptrput
	inc	dptr
	mov	a,r3
	lcall	__gptrput
	inc	dptr
	mov	a,r4
	lcall	__gptrput
	C$list.c$97$1_0$51 ==.
;	src/FreeRTOS/list.c:97: pxNewListItem->pxContainer = pxList;
	mov	a,#0x0b
	add	a,r2
	mov	r2,a
	clr	a
	addc	a,r3
	mov	r3,a
	mov	dpl,r2
	mov	dph,r3
	mov	b,r4
	mov	r0,_bp
	inc	r0
	mov	a,@r0
	lcall	__gptrput
	inc	dptr
	inc	r0
	mov	a,@r0
	lcall	__gptrput
	inc	dptr
	inc	r0
	mov	a,@r0
	lcall	__gptrput
	C$list.c$99$1_0$51 ==.
;	src/FreeRTOS/list.c:99: ( pxList->uxNumberOfItems )++;
	mov	r0,_bp
	inc	r0
	mov	dpl,@r0
	inc	r0
	mov	dph,@r0
	inc	r0
	mov	b,@r0
	lcall	__gptrget
	mov	r7,a
	inc	r7
	mov	r0,_bp
	inc	r0
	mov	dpl,@r0
	inc	r0
	mov	dph,@r0
	inc	r0
	mov	b,@r0
	mov	a,r7
	lcall	__gptrput
	C$list.c$100$1_0$51 ==.
;	src/FreeRTOS/list.c:100: }
	mov	sp,_bp
	pop	_bp
	C$list.c$100$1_0$51 ==.
	XG$vListInsertEnd$0$0 ==.
	ret
;------------------------------------------------------------
;Allocation info for local variables in function 'vListInsert'
;------------------------------------------------------------
;pxNewListItem             Allocated to stack - _bp -5
;pxList                    Allocated to stack - _bp +1
;pxIterator                Allocated to stack - _bp +10
;xValueOfInsertion         Allocated to stack - _bp +13
;sloc0                     Allocated to stack - _bp +4
;sloc1                     Allocated to stack - _bp +7
;------------------------------------------------------------
	G$vListInsert$0$0 ==.
	C$list.c$103$1_0$53 ==.
;	src/FreeRTOS/list.c:103: void vListInsert( List_t * const pxList, ListItem_t * const pxNewListItem )
;	-----------------------------------------
;	 function vListInsert
;	-----------------------------------------
_vListInsert:
	push	_bp
	mov	_bp,sp
	push	dpl
	push	dph
	push	b
	mov	a,sp
	add	a,#0x0b
	mov	sp,a
	C$list.c$106$1_0$53 ==.
;	src/FreeRTOS/list.c:106: const TickType_t xValueOfInsertion = pxNewListItem->xItemValue;
	mov	a,_bp
	add	a,#0xfb
	mov	r0,a
	mov	ar2,@r0
	inc	r0
	mov	ar3,@r0
	inc	r0
	mov	ar4,@r0
	mov	dpl,r2
	mov	dph,r3
	mov	b,r4
	mov	a,_bp
	add	a,#0x0d
	mov	r0,a
	lcall	__gptrget
	mov	@r0,a
	inc	dptr
	lcall	__gptrget
	inc	r0
	mov	@r0,a
	C$list.c$122$1_0$53 ==.
;	src/FreeRTOS/list.c:122: if( xValueOfInsertion == portMAX_DELAY )
	mov	a,_bp
	add	a,#0x0d
	mov	r0,a
	cjne	@r0,#0xff,00103$
	inc	r0
	cjne	@r0,#0xff,00103$
	C$list.c$124$1_0$53 ==.
;	src/FreeRTOS/list.c:124: pxIterator = pxList->xListEnd.pxPrevious;
	push	ar2
	push	ar3
	push	ar4
	mov	r0,_bp
	inc	r0
	mov	a,#0x04
	add	a,@r0
	mov	r2,a
	clr	a
	inc	r0
	addc	a,@r0
	mov	r3,a
	inc	r0
	mov	ar4,@r0
	mov	a,#0x05
	add	a,r2
	mov	r2,a
	clr	a
	addc	a,r3
	mov	r3,a
	mov	dpl,r2
	mov	dph,r3
	mov	b,r4
	mov	a,_bp
	add	a,#0x0a
	mov	r0,a
	lcall	__gptrget
	mov	@r0,a
	inc	dptr
	lcall	__gptrget
	inc	r0
	mov	@r0,a
	inc	dptr
	lcall	__gptrget
	inc	r0
	mov	@r0,a
	pop	ar4
	pop	ar3
	pop	ar2
	ljmp	00104$
00103$:
	C$list.c$150$3_0$56 ==.
;	src/FreeRTOS/list.c:150: for( pxIterator = ( ListItem_t * ) &( pxList->xListEnd ); pxIterator->pxNext->xItemValue <= xValueOfInsertion; pxIterator = pxIterator->pxNext ) /*lint !e826 !e740 !e9087 The mini list structure is used as the list end to save RAM.  This is checked and valid. *//*lint !e440 The iterator moves to a different value, not xValueOfInsertion. */
	mov	r0,_bp
	inc	r0
	mov	a,#0x04
	add	a,@r0
	mov	r5,a
	clr	a
	inc	r0
	addc	a,@r0
	mov	r6,a
	inc	r0
	mov	ar7,@r0
	mov	a,_bp
	add	a,#0x0a
	mov	r0,a
	mov	@r0,ar5
	inc	r0
	mov	@r0,ar6
	inc	r0
	mov	@r0,ar7
00106$:
	push	ar2
	push	ar3
	push	ar4
	mov	a,_bp
	add	a,#0x0a
	mov	r0,a
	mov	a,#0x02
	add	a,@r0
	mov	r5,a
	clr	a
	inc	r0
	addc	a,@r0
	mov	r6,a
	inc	r0
	mov	ar7,@r0
	mov	dpl,r5
	mov	dph,r6
	mov	b,r7
	lcall	__gptrget
	mov	r2,a
	inc	dptr
	lcall	__gptrget
	mov	r3,a
	inc	dptr
	lcall	__gptrget
	mov	r4,a
	mov	dpl,r2
	mov	dph,r3
	mov	b,r4
	lcall	__gptrget
	mov	r2,a
	inc	dptr
	lcall	__gptrget
	mov	r3,a
	mov	a,_bp
	add	a,#0x0d
	mov	r0,a
	clr	c
	mov	a,@r0
	subb	a,r2
	inc	r0
	mov	a,@r0
	subb	a,r3
	pop	ar4
	pop	ar3
	pop	ar2
	jc	00104$
	mov	dpl,r5
	mov	dph,r6
	mov	b,r7
	mov	a,_bp
	add	a,#0x0a
	mov	r0,a
	lcall	__gptrget
	mov	@r0,a
	inc	dptr
	lcall	__gptrget
	inc	r0
	mov	@r0,a
	inc	dptr
	lcall	__gptrget
	inc	r0
	mov	@r0,a
	sjmp	00106$
00104$:
	C$list.c$157$1_0$53 ==.
;	src/FreeRTOS/list.c:157: pxNewListItem->pxNext = pxIterator->pxNext;
	mov	a,_bp
	add	a,#0x04
	mov	r0,a
	mov	a,#0x02
	add	a,r2
	mov	@r0,a
	clr	a
	addc	a,r3
	inc	r0
	mov	@r0,a
	inc	r0
	mov	@r0,ar4
	mov	a,_bp
	add	a,#0x0a
	mov	r0,a
	mov	a,_bp
	add	a,#0x07
	mov	r1,a
	mov	a,#0x02
	add	a,@r0
	mov	@r1,a
	clr	a
	inc	r0
	addc	a,@r0
	inc	r1
	mov	@r1,a
	inc	r0
	inc	r1
	mov	a,@r0
	mov	@r1,a
	mov	a,_bp
	add	a,#0x07
	mov	r0,a
	mov	dpl,@r0
	inc	r0
	mov	dph,@r0
	inc	r0
	mov	b,@r0
	lcall	__gptrget
	mov	r5,a
	inc	dptr
	lcall	__gptrget
	mov	r6,a
	inc	dptr
	lcall	__gptrget
	mov	r7,a
	mov	a,_bp
	add	a,#0x04
	mov	r0,a
	mov	dpl,@r0
	inc	r0
	mov	dph,@r0
	inc	r0
	mov	b,@r0
	mov	a,r5
	lcall	__gptrput
	inc	dptr
	mov	a,r6
	lcall	__gptrput
	inc	dptr
	mov	a,r7
	lcall	__gptrput
	C$list.c$158$1_0$53 ==.
;	src/FreeRTOS/list.c:158: pxNewListItem->pxNext->pxPrevious = pxNewListItem;
	mov	a,#0x05
	add	a,r5
	mov	r5,a
	clr	a
	addc	a,r6
	mov	r6,a
	mov	dpl,r5
	mov	dph,r6
	mov	b,r7
	mov	a,r2
	lcall	__gptrput
	inc	dptr
	mov	a,r3
	lcall	__gptrput
	inc	dptr
	mov	a,r4
	lcall	__gptrput
	C$list.c$159$1_0$53 ==.
;	src/FreeRTOS/list.c:159: pxNewListItem->pxPrevious = pxIterator;
	mov	a,#0x05
	add	a,r2
	mov	r5,a
	clr	a
	addc	a,r3
	mov	r6,a
	mov	ar7,r4
	mov	dpl,r5
	mov	dph,r6
	mov	b,r7
	mov	a,_bp
	add	a,#0x0a
	mov	r0,a
	mov	a,@r0
	lcall	__gptrput
	inc	dptr
	inc	r0
	mov	a,@r0
	lcall	__gptrput
	inc	dptr
	inc	r0
	mov	a,@r0
	lcall	__gptrput
	C$list.c$160$1_0$53 ==.
;	src/FreeRTOS/list.c:160: pxIterator->pxNext = pxNewListItem;
	mov	a,_bp
	add	a,#0x07
	mov	r0,a
	mov	dpl,@r0
	inc	r0
	mov	dph,@r0
	inc	r0
	mov	b,@r0
	mov	a,r2
	lcall	__gptrput
	inc	dptr
	mov	a,r3
	lcall	__gptrput
	inc	dptr
	mov	a,r4
	lcall	__gptrput
	C$list.c$164$1_0$53 ==.
;	src/FreeRTOS/list.c:164: pxNewListItem->pxContainer = pxList;
	mov	a,#0x0b
	add	a,r2
	mov	r2,a
	clr	a
	addc	a,r3
	mov	r3,a
	mov	dpl,r2
	mov	dph,r3
	mov	b,r4
	mov	r0,_bp
	inc	r0
	mov	a,@r0
	lcall	__gptrput
	inc	dptr
	inc	r0
	mov	a,@r0
	lcall	__gptrput
	inc	dptr
	inc	r0
	mov	a,@r0
	lcall	__gptrput
	C$list.c$166$1_0$53 ==.
;	src/FreeRTOS/list.c:166: ( pxList->uxNumberOfItems )++;
	mov	r0,_bp
	inc	r0
	mov	dpl,@r0
	inc	r0
	mov	dph,@r0
	inc	r0
	mov	b,@r0
	lcall	__gptrget
	mov	r7,a
	inc	r7
	mov	r0,_bp
	inc	r0
	mov	dpl,@r0
	inc	r0
	mov	dph,@r0
	inc	r0
	mov	b,@r0
	mov	a,r7
	lcall	__gptrput
	C$list.c$167$1_0$53 ==.
;	src/FreeRTOS/list.c:167: }
	mov	sp,_bp
	pop	_bp
	C$list.c$167$1_0$53 ==.
	XG$vListInsert$0$0 ==.
	ret
;------------------------------------------------------------
;Allocation info for local variables in function 'uxListRemove'
;------------------------------------------------------------
;pxItemToRemove            Allocated to stack - _bp +1
;pxList                    Allocated to stack - _bp +13
;sloc0                     Allocated to stack - _bp +4
;sloc1                     Allocated to stack - _bp +7
;sloc2                     Allocated to stack - _bp +10
;------------------------------------------------------------
	G$uxListRemove$0$0 ==.
	C$list.c$170$1_0$59 ==.
;	src/FreeRTOS/list.c:170: UBaseType_t uxListRemove( ListItem_t * const pxItemToRemove )
;	-----------------------------------------
;	 function uxListRemove
;	-----------------------------------------
_uxListRemove:
	push	_bp
	mov	_bp,sp
	push	dpl
	push	dph
	push	b
	mov	a,sp
	add	a,#0x0c
	mov	sp,a
	C$list.c$174$1_0$59 ==.
;	src/FreeRTOS/list.c:174: List_t * const pxList = pxItemToRemove->pxContainer;
	mov	r0,_bp
	inc	r0
	mov	a,#0x0b
	add	a,@r0
	mov	r2,a
	clr	a
	inc	r0
	addc	a,@r0
	mov	r3,a
	inc	r0
	mov	ar4,@r0
	mov	dpl,r2
	mov	dph,r3
	mov	b,r4
	mov	a,_bp
	add	a,#0x0d
	mov	r0,a
	lcall	__gptrget
	mov	@r0,a
	inc	dptr
	lcall	__gptrget
	inc	r0
	mov	@r0,a
	inc	dptr
	lcall	__gptrget
	inc	r0
	mov	@r0,a
	C$list.c$176$1_0$59 ==.
;	src/FreeRTOS/list.c:176: pxItemToRemove->pxNext->pxPrevious = pxItemToRemove->pxPrevious;
	mov	r0,_bp
	inc	r0
	mov	a,_bp
	add	a,#0x04
	mov	r1,a
	mov	a,#0x02
	add	a,@r0
	mov	@r1,a
	clr	a
	inc	r0
	addc	a,@r0
	inc	r1
	mov	@r1,a
	inc	r0
	inc	r1
	mov	a,@r0
	mov	@r1,a
	mov	a,_bp
	add	a,#0x04
	mov	r0,a
	mov	dpl,@r0
	inc	r0
	mov	dph,@r0
	inc	r0
	mov	b,@r0
	lcall	__gptrget
	mov	r5,a
	inc	dptr
	lcall	__gptrget
	mov	r6,a
	inc	dptr
	lcall	__gptrget
	mov	r7,a
	mov	a,_bp
	add	a,#0x0a
	mov	r0,a
	mov	a,#0x05
	add	a,r5
	mov	@r0,a
	clr	a
	addc	a,r6
	inc	r0
	mov	@r0,a
	inc	r0
	mov	@r0,ar7
	mov	r0,_bp
	inc	r0
	mov	a,_bp
	add	a,#0x07
	mov	r1,a
	mov	a,#0x05
	add	a,@r0
	mov	@r1,a
	clr	a
	inc	r0
	addc	a,@r0
	inc	r1
	mov	@r1,a
	inc	r0
	inc	r1
	mov	a,@r0
	mov	@r1,a
	mov	a,_bp
	add	a,#0x07
	mov	r0,a
	mov	dpl,@r0
	inc	r0
	mov	dph,@r0
	inc	r0
	mov	b,@r0
	lcall	__gptrget
	mov	r5,a
	inc	dptr
	lcall	__gptrget
	mov	r6,a
	inc	dptr
	lcall	__gptrget
	mov	r7,a
	mov	a,_bp
	add	a,#0x0a
	mov	r0,a
	mov	dpl,@r0
	inc	r0
	mov	dph,@r0
	inc	r0
	mov	b,@r0
	mov	a,r5
	lcall	__gptrput
	inc	dptr
	mov	a,r6
	lcall	__gptrput
	inc	dptr
	mov	a,r7
	lcall	__gptrput
	C$list.c$177$1_0$59 ==.
;	src/FreeRTOS/list.c:177: pxItemToRemove->pxPrevious->pxNext = pxItemToRemove->pxNext;
	mov	a,_bp
	add	a,#0x07
	mov	r0,a
	mov	dpl,@r0
	inc	r0
	mov	dph,@r0
	inc	r0
	mov	b,@r0
	lcall	__gptrget
	mov	r5,a
	inc	dptr
	lcall	__gptrget
	mov	r6,a
	inc	dptr
	lcall	__gptrget
	mov	r7,a
	mov	a,_bp
	add	a,#0x0a
	mov	r0,a
	mov	a,#0x02
	add	a,r5
	mov	@r0,a
	clr	a
	addc	a,r6
	inc	r0
	mov	@r0,a
	inc	r0
	mov	@r0,ar7
	mov	a,_bp
	add	a,#0x04
	mov	r0,a
	mov	dpl,@r0
	inc	r0
	mov	dph,@r0
	inc	r0
	mov	b,@r0
	lcall	__gptrget
	mov	r5,a
	inc	dptr
	lcall	__gptrget
	mov	r6,a
	inc	dptr
	lcall	__gptrget
	mov	r7,a
	mov	a,_bp
	add	a,#0x0a
	mov	r0,a
	mov	dpl,@r0
	inc	r0
	mov	dph,@r0
	inc	r0
	mov	b,@r0
	mov	a,r5
	lcall	__gptrput
	inc	dptr
	mov	a,r6
	lcall	__gptrput
	inc	dptr
	mov	a,r7
	lcall	__gptrput
	C$list.c$183$1_0$59 ==.
;	src/FreeRTOS/list.c:183: if( pxList->pxIndex == pxItemToRemove )
	mov	a,_bp
	add	a,#0x0d
	mov	r0,a
	mov	a,_bp
	add	a,#0x0a
	mov	r1,a
	mov	a,#0x01
	add	a,@r0
	mov	@r1,a
	clr	a
	inc	r0
	addc	a,@r0
	inc	r1
	mov	@r1,a
	inc	r0
	inc	r1
	mov	a,@r0
	mov	@r1,a
	mov	a,_bp
	add	a,#0x0a
	mov	r0,a
	mov	dpl,@r0
	inc	r0
	mov	dph,@r0
	inc	r0
	mov	b,@r0
	lcall	__gptrget
	mov	r5,a
	inc	dptr
	lcall	__gptrget
	mov	r6,a
	inc	dptr
	lcall	__gptrget
	mov	r7,a
	mov	r0,_bp
	inc	r0
	push	ar5
	push	ar6
	push	ar7
	mov	dpl,@r0
	inc	r0
	mov	dph,@r0
	inc	r0
	mov	b,@r0
	lcall	___gptr_cmp
	dec	sp
	dec	sp
	dec	sp
	jz	00110$
	sjmp	00102$
00110$:
	C$list.c$185$2_0$60 ==.
;	src/FreeRTOS/list.c:185: pxList->pxIndex = pxItemToRemove->pxPrevious;
	mov	a,_bp
	add	a,#0x07
	mov	r0,a
	mov	dpl,@r0
	inc	r0
	mov	dph,@r0
	inc	r0
	mov	b,@r0
	lcall	__gptrget
	mov	r5,a
	inc	dptr
	lcall	__gptrget
	mov	r6,a
	inc	dptr
	lcall	__gptrget
	mov	r7,a
	mov	a,_bp
	add	a,#0x0a
	mov	r0,a
	mov	dpl,@r0
	inc	r0
	mov	dph,@r0
	inc	r0
	mov	b,@r0
	mov	a,r5
	lcall	__gptrput
	inc	dptr
	mov	a,r6
	lcall	__gptrput
	inc	dptr
	mov	a,r7
	lcall	__gptrput
00102$:
	C$list.c$192$1_0$59 ==.
;	src/FreeRTOS/list.c:192: pxItemToRemove->pxContainer = NULL;
	mov	dpl,r2
	mov	dph,r3
	mov	b,r4
	clr	a
	lcall	__gptrput
	inc	dptr
	lcall	__gptrput
	inc	dptr
	lcall	__gptrput
	C$list.c$193$1_0$59 ==.
;	src/FreeRTOS/list.c:193: ( pxList->uxNumberOfItems )--;
	mov	a,_bp
	add	a,#0x0d
	mov	r0,a
	mov	dpl,@r0
	inc	r0
	mov	dph,@r0
	inc	r0
	mov	b,@r0
	lcall	__gptrget
	mov	r7,a
	dec	r7
	mov	a,_bp
	add	a,#0x0d
	mov	r0,a
	mov	dpl,@r0
	inc	r0
	mov	dph,@r0
	inc	r0
	mov	b,@r0
	mov	a,r7
	lcall	__gptrput
	C$list.c$195$1_0$59 ==.
;	src/FreeRTOS/list.c:195: return pxList->uxNumberOfItems;
	mov	a,_bp
	add	a,#0x0d
	mov	r0,a
	mov	dpl,@r0
	inc	r0
	mov	dph,@r0
	inc	r0
	mov	b,@r0
	lcall	__gptrget
	mov	dpl,a
	C$list.c$196$1_0$59 ==.
;	src/FreeRTOS/list.c:196: }
	mov	sp,_bp
	pop	_bp
	C$list.c$196$1_0$59 ==.
	XG$uxListRemove$0$0 ==.
	ret
	.area CSEG    (CODE)
	.area CONST   (CODE)
	.area CABS    (ABS,CODE)
